; Function Attrs: nofree norecurse nosync nounwind memory(argmem: readwrite) uwtable
define dso_local noundef ptr @decNumberFromUInt32(ptr noundef returned initializes((0, 9), (10, 12)) %0, i32 noundef %1) local_unnamed_addr #0 {
  %3 = getelementptr inbounds nuw i8, ptr %0, i64 8
  store i8 0, ptr %3, align 4, !tbaa !4
  %4 = getelementptr inbounds nuw i8, ptr %0, i64 4
  store i32 0, ptr %4, align 4, !tbaa !9
  store i32 1, ptr %0, align 4, !tbaa !10
  %.ptr17 = getelementptr inbounds nuw i8, ptr %0, i64 10
  store i16 0, ptr %.ptr17, align 2, !tbaa !11
  %5 = icmp eq i32 %1, 0
  br i1 %5, label %29, label %.preheader

.preheader:                                       ; preds = %2, %.preheader
  %.022 = phi ptr [ %9, %.preheader ], [ %.ptr17, %2 ]
  %.01421 = phi i32 [ %8, %.preheader ], [ %1, %2 ]
  %6 = urem i32 %.01421, 1000
  %7 = trunc nuw nsw i32 %6 to i16
  store i16 %7, ptr %.022, align 2, !tbaa !11
  %8 = udiv i32 %.01421, 1000
  %9 = getelementptr inbounds nuw i8, ptr %.022, i64 2
  %.not = icmp ult i32 %.01421, 1000
  br i1 %.not, label %10, label %.preheader, !llvm.loop !13

10:                                               ; preds = %.preheader
  %11 = ptrtoint ptr %9 to i64
  %12 = ptrtoint ptr %.ptr17 to i64
  %13 = sub i64 %11, %12
  %14 = lshr exact i64 %13, 1
  %15 = trunc i64 %14 to i32
  %16 = add nsw i32 %15, -1
  %17 = mul nsw i32 %16, 3
  %18 = add nsw i32 %17, 1
  %.not16.i = icmp slt i32 %15, 1
  br i1 %.not16.i, label %decGetDigits.exit, label %.lr.ph.preheader.i

.lr.ph.preheader.i:                               ; preds = %10
  %19 = zext nneg i32 %16 to i64
  %.idx = shl nuw nsw i64 %19, 1
  %.add = add nuw nsw i64 %.idx, 10
  %.01317.i.ptr32 = getelementptr inbounds nuw i8, ptr %0, i64 %.add
  %20 = load i16, ptr %.01317.i.ptr32, align 2, !tbaa !11
  %21 = icmp eq i16 %20, 0
  br i1 %21, label %.lr.ph, label %.lr.ph.i._crit_edge

.lr.ph:                                           ; preds = %.lr.ph.preheader.i, %.lr.ph.i
  %.01317.i.idx34 = phi i64 [ %.01317.i.add, %.lr.ph.i ], [ %.add, %.lr.ph.preheader.i ]
  %.018.i33 = phi i32 [ %23, %.lr.ph.i ], [ %18, %.lr.ph.preheader.i ]
  %22 = icmp eq i32 %.018.i33, 1
  br i1 %22, label %decGetDigits.exit, label %.lr.ph.i

.lr.ph.i:                                         ; preds = %.lr.ph
  %23 = add nsw i32 %.018.i33, -3
  %.01317.i.add = add nsw i64 %.01317.i.idx34, -2
  %.01317.i.ptr = getelementptr inbounds i8, ptr %0, i64 %.01317.i.add
  %24 = load i16, ptr %.01317.i.ptr, align 2, !tbaa !11
  %25 = icmp eq i16 %24, 0
  br i1 %25, label %.lr.ph, label %.lr.ph.i._crit_edge

.lr.ph.i._crit_edge:                              ; preds = %.lr.ph.i, %.lr.ph.preheader.i
  %.018.i.lcssa = phi i32 [ %18, %.lr.ph.preheader.i ], [ %23, %.lr.ph.i ]
  %.lcssa = phi i16 [ %20, %.lr.ph.preheader.i ], [ %24, %.lr.ph.i ]
  %26 = icmp ult i16 %.lcssa, 10
  br i1 %26, label %decGetDigits.exit, label %27

27:                                               ; preds = %.lr.ph.i._crit_edge
  %28 = icmp ult i16 %.lcssa, 100
  %spec.select.v.i = select i1 %28, i32 1, i32 2
  %spec.select.i = add nsw i32 %spec.select.v.i, %.018.i.lcssa
  br label %decGetDigits.exit

decGetDigits.exit:                                ; preds = %.lr.ph, %10, %.lr.ph.i._crit_edge, %27
  %.1.i = phi i32 [ %.018.i.lcssa, %.lr.ph.i._crit_edge ], [ %spec.select.i, %27 ], [ %18, %10 ], [ 1, %.lr.ph ]
  store i32 %.1.i, ptr %0, align 4, !tbaa !10
  br label %29

29:                                               ; preds = %2, %decGetDigits.exit
  ret ptr %0
}